; Function Attrs: mustprogress uwtable
define noundef i64 @_ZN8proxygen2hq13HQStreamCodec12generateBodyERN5folly10IOBufQueueEmSt10unique_ptrINS2_5IOBufESt14default_deleteIS6_EENS2_8OptionalIhEEb(ptr nocapture nonnull readnone align 16 %this, ptr noundef nonnull align 8 dereferenceable(72) %writeBuf, i64 %stream, ptr nocapture noundef %chain, ptr nocapture readnone %0, i1 zeroext %1) unnamed_addr #3 align 2 personality ptr @__gxx_personality_v0 {
entry:
  %agg.tmp = alloca %"class.std::unique_ptr.11", align 8
  %2 = load i64, ptr %chain, align 8
  store i64 %2, ptr %agg.tmp, align 8
  store ptr null, ptr %chain, align 8
  %call13 = invoke noundef i64 @_ZN8proxygen2hq13HQStreamCodec16generateBodyImplERN5folly10IOBufQueueESt10unique_ptrINS2_5IOBufESt14default_deleteIS6_EE(ptr nonnull align 16 poison, ptr noundef nonnull align 8 dereferenceable(72) %writeBuf, ptr noundef nonnull %agg.tmp)
          to label %invoke.cont12 unwind label %lpad11

invoke.cont12:                                    ; preds = %entry
  %3 = load ptr, ptr %agg.tmp, align 8
  %cmp.not.i = icmp eq ptr %3, null
  br i1 %cmp.not.i, label %_ZNSt10unique_ptrIN5folly5IOBufESt14default_deleteIS1_EED2Ev.exit, label %_ZNKSt14default_deleteIN5folly5IOBufEEclEPS1_.exit.i

_ZNKSt14default_deleteIN5folly5IOBufEEclEPS1_.exit.i: ; preds = %invoke.cont12
  tail call void @_ZN5folly5IOBufD1Ev(ptr noundef nonnull align 8 dereferenceable(56) %3) #21
  tail call void @_ZN5folly5IOBufdlEPv(ptr noundef nonnull %3) #21
  br label %_ZNSt10unique_ptrIN5folly5IOBufESt14default_deleteIS1_EED2Ev.exit

_ZNSt10unique_ptrIN5folly5IOBufESt14default_deleteIS1_EED2Ev.exit: ; preds = %invoke.cont12, %_ZNKSt14default_deleteIN5folly5IOBufEEclEPS1_.exit.i
  ret i64 %call13

lpad11:                                           ; preds = %entry
  %4 = landingpad { ptr, i32 }
          cleanup
  call void @_ZNSt10unique_ptrIN5folly5IOBufESt14default_deleteIS1_EED2Ev(ptr noundef nonnull align 8 dereferenceable(8) %agg.tmp) #21
  resume { ptr, i32 } %4
}